target datalayout = "e-m:e-p270:32:32-p271:32:32-p272:64:64-i64:64-f80:128-n8:16:32:64-S128"
target triple = "x86_64-pc-linux-gnu"

@.str = private unnamed_addr constant [6 x i8] c"%d,%d\00", align 1
@.str.1 = private unnamed_addr constant [3 x i8] c"%d\00", align 1
@.str.2 = private unnamed_addr constant [6 x i8] c"%d+%d\00", align 1
@.str.3 = private unnamed_addr constant [3 x i8] c"No\00", align 1

; Function Attrs: noinline nounwind uwtable
define dso_local void @main() #0 {
  %1 = alloca [8 x [8 x i32]], align 16
  %2 = alloca [8 x i32], align 16
  %3 = alloca [8 x i32], align 16
  %4 = alloca i32, align 4
  %5 = alloca i32, align 4
  %6 = alloca i32, align 4
  %7 = alloca i32, align 4
  %8 = alloca i32, align 4
  %9 = alloca i32, align 4
  store i32 0, i32* %9, align 4
  %10 = call i32 (i8*, ...) @__isoc99_scanf(i8* getelementptr inbounds ([6 x i8], [6 x i8]* @.str, i64 0, i64 0), i32* %4, i32* %5)
  store i32 0, i32* %6, align 4
  br label %11

11:                                               ; preds = %32, %0
  %12 = load i32, i32* %6, align 4
  %13 = load i32, i32* %4, align 4
  %14 = icmp slt i32 %12, %13
  br i1 %14, label %15, label %35

15:                                               ; preds = %11
  store i32 0, i32* %7, align 4
  br label %16

16:                                               ; preds = %28, %15
  %17 = load i32, i32* %7, align 4
  %18 = load i32, i32* %5, align 4
  %19 = icmp slt i32 %17, %18
  br i1 %19, label %20, label %31

20:                                               ; preds = %16
  %21 = load i32, i32* %6, align 4
  %22 = sext i32 %21 to i64
  %23 = getelementptr inbounds [8 x [8 x i32]], [8 x [8 x i32]]* %1, i64 0, i64 %22
  %24 = load i32, i32* %7, align 4
  %25 = sext i32 %24 to i64
  %26 = getelementptr inbounds [8 x i32], [8 x i32]* %23, i64 0, i64 %25
  %27 = call i32 (i8*, ...) @__isoc99_scanf(i8* getelementptr inbounds ([3 x i8], [3 x i8]* @.str.1, i64 0, i64 0), i32* %26)
  br label %28

28:                                               ; preds = %20
  %29 = load i32, i32* %7, align 4
  %30 = add nsw i32 %29, 1
  store i32 %30, i32* %7, align 4
  br label %16

31:                                               ; preds = %16
  br label %32

32:                                               ; preds = %31
  %33 = load i32, i32* %6, align 4
  %34 = add nsw i32 %33, 1
  store i32 %34, i32* %6, align 4
  br label %11

35:                                               ; preds = %11
  store i32 0, i32* %6, align 4
  br label %36

36:                                               ; preds = %81, %35
  %37 = load i32, i32* %6, align 4
  %38 = load i32, i32* %4, align 4
  %39 = icmp slt i32 %37, %38
  br i1 %39, label %40, label %84

40:                                               ; preds = %36
  store i32 0, i32* %8, align 4
  store i32 0, i32* %7, align 4
  br label %41

41:                                               ; preds = %67, %40
  %42 = load i32, i32* %7, align 4
  %43 = load i32, i32* %5, align 4
  %44 = sub nsw i32 %43, 1
  %45 = icmp slt i32 %42, %44
  br i1 %45, label %46, label %70

46:                                               ; preds = %41
  %47 = load i32, i32* %6, align 4
  %48 = sext i32 %47 to i64
  %49 = getelementptr inbounds [8 x [8 x i32]], [8 x [8 x i32]]* %1, i64 0, i64 %48
  %50 = load i32, i32* %7, align 4
  %51 = sext i32 %50 to i64
  %52 = getelementptr inbounds [8 x i32], [8 x i32]* %49, i64 0, i64 %51
  %53 = load i32, i32* %52, align 4
  %54 = load i32, i32* %6, align 4
  %55 = sext i32 %54 to i64
  %56 = getelementptr inbounds [8 x [8 x i32]], [8 x [8 x i32]]* %1, i64 0, i64 %55
  %57 = load i32, i32* %7, align 4
  %58 = add nsw i32 %57, 1
  %59 = sext i32 %58 to i64
  %60 = getelementptr inbounds [8 x i32], [8 x i32]* %56, i64 0, i64 %59
  %61 = load i32, i32* %60, align 4
  %62 = icmp slt i32 %53, %61
  br i1 %62, label %63, label %66

63:                                               ; preds = %46
  %64 = load i32, i32* %7, align 4
  %65 = add nsw i32 %64, 1
  store i32 %65, i32* %8, align 4
  br label %66

66:                                               ; preds = %63, %46
  br label %67

67:                                               ; preds = %66
  %68 = load i32, i32* %7, align 4
  %69 = add nsw i32 %68, 1
  store i32 %69, i32* %7, align 4
  br label %41

70:                                               ; preds = %41
  %71 = load i32, i32* %6, align 4
  %72 = sext i32 %71 to i64
  %73 = getelementptr inbounds [8 x [8 x i32]], [8 x [8 x i32]]* %1, i64 0, i64 %72
  %74 = load i32, i32* %8, align 4
  %75 = sext i32 %74 to i64
  %76 = getelementptr inbounds [8 x i32], [8 x i32]* %73, i64 0, i64 %75
  %77 = load i32, i32* %76, align 4
  %78 = load i32, i32* %6, align 4
  %79 = sext i32 %78 to i64
  %80 = getelementptr inbounds [8 x i32], [8 x i32]* %2, i64 0, i64 %79
  store i32 %77, i32* %80, align 4
  br label %81

81:                                               ; preds = %70
  %82 = load i32, i32* %6, align 4
  %83 = add nsw i32 %82, 1
  store i32 %83, i32* %6, align 4
  br label %36

84:                                               ; preds = %36
  store i32 0, i32* %7, align 4
  br label %85

85:                                               ; preds = %130, %84
  %86 = load i32, i32* %7, align 4
  %87 = load i32, i32* %5, align 4
  %88 = icmp slt i32 %86, %87
  br i1 %88, label %89, label %133

89:                                               ; preds = %85
  store i32 0, i32* %8, align 4
  store i32 0, i32* %6, align 4
  br label %90

90:                                               ; preds = %116, %89
  %91 = load i32, i32* %6, align 4
  %92 = load i32, i32* %4, align 4
  %93 = sub nsw i32 %92, 1
  %94 = icmp slt i32 %91, %93
  br i1 %94, label %95, label %119

95:                                               ; preds = %90
  %96 = load i32, i32* %6, align 4
  %97 = sext i32 %96 to i64
  %98 = getelementptr inbounds [8 x [8 x i32]], [8 x [8 x i32]]* %1, i64 0, i64 %97
  %99 = load i32, i32* %7, align 4
  %100 = sext i32 %99 to i64
  %101 = getelementptr inbounds [8 x i32], [8 x i32]* %98, i64 0, i64 %100
  %102 = load i32, i32* %101, align 4
  %103 = load i32, i32* %6, align 4
  %104 = add nsw i32 %103, 1
  %105 = sext i32 %104 to i64
  %106 = getelementptr inbounds [8 x [8 x i32]], [8 x [8 x i32]]* %1, i64 0, i64 %105
  %107 = load i32, i32* %7, align 4
  %108 = sext i32 %107 to i64
  %109 = getelementptr inbounds [8 x i32], [8 x i32]* %106, i64 0, i64 %108
  %110 = load i32, i32* %109, align 4
  %111 = icmp sgt i32 %102, %110
  br i1 %111, label %112, label %115

112:                                              ; preds = %95
  %113 = load i32, i32* %6, align 4
  %114 = add nsw i32 %113, 1
  store i32 %114, i32* %8, align 4
  br label %115

115:                                              ; preds = %112, %95
  br label %116

116:                                              ; preds = %115
  %117 = load i32, i32* %6, align 4
  %118 = add nsw i32 %117, 1
  store i32 %118, i32* %6, align 4
  br label %90

119:                                              ; preds = %90
  %120 = load i32, i32* %8, align 4
  %121 = sext i32 %120 to i64
  %122 = getelementptr inbounds [8 x [8 x i32]], [8 x [8 x i32]]* %1, i64 0, i64 %121
  %123 = load i32, i32* %7, align 4
  %124 = sext i32 %123 to i64
  %125 = getelementptr inbounds [8 x i32], [8 x i32]* %122, i64 0, i64 %124
  %126 = load i32, i32* %125, align 4
  %127 = load i32, i32* %7, align 4
  %128 = sext i32 %127 to i64
  %129 = getelementptr inbounds [8 x i32], [8 x i32]* %3, i64 0, i64 %128
  store i32 %126, i32* %129, align 4
  br label %130

130:                                              ; preds = %119
  %131 = load i32, i32* %7, align 4
  %132 = add nsw i32 %131, 1
  store i32 %132, i32* %7, align 4
  br label %85

133:                                              ; preds = %85
  store i32 0, i32* %6, align 4
  br label %134

134:                                              ; preds = %162, %133
  %135 = load i32, i32* %6, align 4
  %136 = load i32, i32* %4, align 4
  %137 = icmp slt i32 %135, %136
  br i1 %137, label %138, label %165

138:                                              ; preds = %134
  store i32 0, i32* %7, align 4
  br label %139

139:                                              ; preds = %158, %138
  %140 = load i32, i32* %7, align 4
  %141 = load i32, i32* %5, align 4
  %142 = icmp slt i32 %140, %141
  br i1 %142, label %143, label %161

143:                                              ; preds = %139
  %144 = load i32, i32* %6, align 4
  %145 = sext i32 %144 to i64
  %146 = getelementptr inbounds [8 x i32], [8 x i32]* %2, i64 0, i64 %145
  %147 = load i32, i32* %146, align 4
  %148 = load i32, i32* %7, align 4
  %149 = sext i32 %148 to i64
  %150 = getelementptr inbounds [8 x i32], [8 x i32]* %3, i64 0, i64 %149
  %151 = load i32, i32* %150, align 4
  %152 = icmp eq i32 %147, %151
  br i1 %152, label %153, label %157

153:                                              ; preds = %143
  %154 = load i32, i32* %6, align 4
  %155 = load i32, i32* %7, align 4
  %156 = call i32 (i8*, ...) @printf(i8* getelementptr inbounds ([6 x i8], [6 x i8]* @.str.2, i64 0, i64 0), i32 %154, i32 %155)
  store i32 1, i32* %9, align 4
  br label %157

157:                                              ; preds = %153, %143
  br label %158

158:                                              ; preds = %157
  %159 = load i32, i32* %7, align 4
  %160 = add nsw i32 %159, 1
  store i32 %160, i32* %7, align 4
  br label %139

161:                                              ; preds = %139
  br label %162

162:                                              ; preds = %161
  %163 = load i32, i32* %6, align 4
  %164 = add nsw i32 %163, 1
  store i32 %164, i32* %6, align 4
  br label %134

165:                                              ; preds = %134
  %166 = load i32, i32* %9, align 4
  %167 = icmp eq i32 %166, 0
  br i1 %167, label %168, label %170

168:                                              ; preds = %165
  %169 = call i32 (i8*, ...) @printf(i8* getelementptr inbounds ([3 x i8], [3 x i8]* @.str.3, i64 0, i64 0))
  br label %170

170:                                              ; preds = %168, %165
  ret void
}